; Function Attrs: null_pointer_is_valid sspstrong uwtable
define hidden i32 @netdfs_dissect_struct_dfs_Info5(ptr noundef %0, i32 noundef %1, ptr noundef %2, ptr noundef %3, ptr noundef %4, ptr noundef %5, i32 noundef %6, i32 %7) local_unnamed_addr #0 {
  %9 = getelementptr inbounds nuw i8, ptr %4, i64 64
  %10 = load ptr, ptr %9, align 8
  %11 = getelementptr inbounds nuw i8, ptr %10, i64 96
  %12 = load i32, ptr %11, align 8
  %13 = and i32 %12, 1
  %.not = icmp eq i32 %13, 0
  %14 = getelementptr inbounds nuw i8, ptr %4, i64 25
  %15 = load i8, ptr %14, align 1, !range !6, !noundef !7
  %16 = trunc nuw i8 %15 to i1
  br i1 %.not, label %22, label %17

17:                                               ; preds = %8
  %18 = and i32 %1, 7
  %.not77 = icmp eq i32 %18, 0
  %or.cond = or i1 %.not77, %16
  br i1 %or.cond, label %27, label %19

19:                                               ; preds = %17
  %20 = and i32 %1, -8
  %21 = add i32 %20, 8
  br label %27

22:                                               ; preds = %8
  %23 = and i32 %1, 3
  %.not76 = icmp eq i32 %23, 0
  %or.cond81 = or i1 %.not76, %16
  br i1 %or.cond81, label %27, label %24

24:                                               ; preds = %22
  %25 = and i32 %1, -4
  %26 = add i32 %25, 4
  br label %27

27:                                               ; preds = %22, %24, %17, %19
  %.0 = phi i32 [ %1, %17 ], [ %21, %19 ], [ %1, %22 ], [ %26, %24 ]
  %.not78 = icmp eq ptr %3, null
  br i1 %.not78, label %32, label %28

28:                                               ; preds = %27
  %29 = tail call ptr @proto_tree_add_item(ptr noundef nonnull %3, i32 noundef %6, ptr noundef %0, i32 noundef %.0, i32 noundef -1, i32 noundef 0)
  %30 = load i32, ptr @ett_netdfs_dfs_Info5, align 4
  %31 = tail call ptr @proto_item_add_subtree(ptr noundef %29, i32 noundef %30)
  br label %32

32:                                               ; preds = %28, %27
  %.074 = phi ptr [ %29, %28 ], [ null, %27 ]
  %.073 = phi ptr [ %31, %28 ], [ null, %27 ]
  %33 = load i32, ptr @hf_netdfs_dfs_Info5_path, align 4
  %34 = tail call i32 @dissect_ndr_embedded_pointer(ptr noundef %0, i32 noundef %.0, ptr noundef %2, ptr noundef %.073, ptr noundef %4, ptr noundef %5, ptr noundef nonnull @netdfs_dissect_element_dfs_Info5_path_, i32 noundef 2, ptr noundef nonnull @.str.260, i32 noundef %33)
  %35 = load i32, ptr @hf_netdfs_dfs_Info5_comment, align 4
  %36 = tail call i32 @dissect_ndr_embedded_pointer(ptr noundef %0, i32 noundef %34, ptr noundef %2, ptr noundef %.073, ptr noundef %4, ptr noundef %5, ptr noundef nonnull @netdfs_dissect_element_dfs_Info5_comment_, i32 noundef 2, ptr noundef nonnull @.str.262, i32 noundef %35)
  %37 = load i32, ptr @hf_netdfs_dfs_Info5_state, align 4
  %38 = tail call i32 @netdfs_dissect_bitmap_dfs_VolumeState(ptr noundef %0, i32 noundef %36, ptr noundef %2, ptr noundef %.073, ptr noundef %4, ptr noundef %5, i32 noundef %37, i32 poison)
  %39 = load i32, ptr @hf_netdfs_dfs_Info5_timeout, align 4
  %40 = tail call i32 @PIDL_dissect_uint32(ptr noundef %0, i32 noundef %38, ptr noundef %2, ptr noundef %.073, ptr noundef %4, ptr noundef %5, i32 noundef %39, i32 noundef 0)
  %41 = load i32, ptr @hf_netdfs_dfs_Info5_guid, align 4
  %42 = tail call i32 @dissect_ndr_uuid_t(ptr noundef %0, i32 noundef %40, ptr noundef %2, ptr noundef %.073, ptr noundef %4, ptr noundef %5, i32 noundef %41, ptr noundef null)
  %43 = load i32, ptr @hf_netdfs_dfs_Info5_flags, align 4
  %44 = tail call i32 @netdfs_dissect_bitmap_dfs_PropertyFlags(ptr noundef %0, i32 noundef %42, ptr noundef %2, ptr noundef %.073, ptr noundef %4, ptr noundef %5, i32 noundef %43, i32 poison)
  %45 = load i32, ptr @hf_netdfs_dfs_Info5_pktsize, align 4
  %46 = tail call i32 @PIDL_dissect_uint32(ptr noundef %0, i32 noundef %44, ptr noundef %2, ptr noundef %.073, ptr noundef %4, ptr noundef %5, i32 noundef %45, i32 noundef 0)
  %47 = load i32, ptr @hf_netdfs_dfs_Info5_num_stores, align 4
  %48 = tail call i32 @PIDL_dissect_uint32(ptr noundef %0, i32 noundef %46, ptr noundef %2, ptr noundef %.073, ptr noundef %4, ptr noundef %5, i32 noundef %47, i32 noundef 0)
  %49 = sub i32 %48, %.0
  tail call void @proto_item_set_len(ptr noundef %.074, i32 noundef %49)
  %50 = load ptr, ptr %9, align 8
  %51 = getelementptr inbounds nuw i8, ptr %50, i64 96
  %52 = load i32, ptr %51, align 8
  %53 = and i32 %52, 1
  %.not79 = icmp eq i32 %53, 0
  br i1 %.not79, label %62, label %54

54:                                               ; preds = %32
  %55 = getelementptr inbounds nuw i8, ptr %4, i64 25
  %56 = load i8, ptr %55, align 1, !range !6, !noundef !7
  %57 = trunc nuw i8 %56 to i1
  %58 = and i32 %48, 7
  %.not80 = icmp eq i32 %58, 0
  %or.cond82 = or i1 %.not80, %57
  br i1 %or.cond82, label %62, label %59

59:                                               ; preds = %54
  %60 = and i32 %48, -8
  %61 = add i32 %60, 8
  br label %62

62:                                               ; preds = %59, %54, %32
  %.1 = phi i32 [ %48, %54 ], [ %61, %59 ], [ %48, %32 ]
  ret i32 %.1
}